target datalayout = "e-m:e-p270:32:32-p271:32:32-p272:64:64-i64:64-i128:128-f80:128-n8:16:32:64-S128"
target triple = "x86_64-pc-linux-gnu"

%struct.PJconsts = type <{ ptr, ptr, ptr, ptr, ptr, ptr, ptr, ptr, ptr, ptr, ptr, ptr, i32, [4 x i8], ptr, ptr, ptr, ptr, ptr, ptr, ptr, ptr, double, double, double, double, double, double, double, double, double, double, double, double, double, double, double, double, double, double, double, double, double, double, i32, i32, i32, i32, i32, i32, i32, i32, i32, i32, i32, [4 x i8], ptr, ptr, ptr, ptr, ptr, ptr, double, double, double, double, double, double, double, double, double, double, double, i32, [4 x i8], [7 x double], i32, [4 x i8], ptr, ptr, double, double, i32, [4 x i8], %"class.std::shared_ptr", i8, [7 x i8], double, i8, [7 x i8], %"class.std::__cxx11::basic_string", %"class.std::__cxx11::basic_string", %"class.std::__cxx11::basic_string", i8, [7 x i8], %"class.std::vector", i32, [4 x i8], %"class.std::vector.3", i32, i8, i8, i8, i8 }>
%"class.std::shared_ptr" = type { %"class.std::__shared_ptr" }
%"class.std::__shared_ptr" = type { ptr, %"class.std::__shared_count" }
%"class.std::__shared_count" = type { ptr }
%"class.std::__cxx11::basic_string" = type { %"struct.std::__cxx11::basic_string<char>::_Alloc_hider", i64, %union.anon }
%"struct.std::__cxx11::basic_string<char>::_Alloc_hider" = type { ptr }
%union.anon = type { i64, [8 x i8] }
%"class.std::vector" = type { %"struct.std::_Vector_base" }
%"struct.std::_Vector_base" = type { %"struct.std::_Vector_base<osgeo::proj::operation::GridDescription, std::allocator<osgeo::proj::operation::GridDescription>>::_Vector_impl" }
%"struct.std::_Vector_base<osgeo::proj::operation::GridDescription, std::allocator<osgeo::proj::operation::GridDescription>>::_Vector_impl" = type { %"struct.std::_Vector_base<osgeo::proj::operation::GridDescription, std::allocator<osgeo::proj::operation::GridDescription>>::_Vector_impl_data" }
%"struct.std::_Vector_base<osgeo::proj::operation::GridDescription, std::allocator<osgeo::proj::operation::GridDescription>>::_Vector_impl_data" = type { ptr, ptr, ptr }
%"class.std::vector.3" = type { %"struct.std::_Vector_base.4" }
%"struct.std::_Vector_base.4" = type { %"struct.std::_Vector_base<PJCoordOperation, std::allocator<PJCoordOperation>>::_Vector_impl" }
%"struct.std::_Vector_base<PJCoordOperation, std::allocator<PJCoordOperation>>::_Vector_impl" = type { %"struct.std::_Vector_base<PJCoordOperation, std::allocator<PJCoordOperation>>::_Vector_impl_data" }
%"struct.std::_Vector_base<PJCoordOperation, std::allocator<PJCoordOperation>>::_Vector_impl_data" = type { ptr, ptr, ptr }

@.str.67 = private unnamed_addr constant [1 x i8] zeroinitializer, align 1
@.str.107 = private unnamed_addr constant [5 x i8] c"East\00", align 1

; Function Attrs: mustprogress uwtable
define internal void @"_ZZN16PJCoordOperationC1EiddddddddP8PJconstsRKNSt7__cxx1112basic_stringIcSt11char_traitsIcESaIcEEEddPKcPKS0_SD_ENK3$_0clESD_RbSF_"(ptr noundef nonnull align 1 dereferenceable(1) %0, ptr noundef %1, ptr noundef nonnull align 1 dereferenceable(1) %2, ptr noundef nonnull align 1 dereferenceable(1) %3) #1 align 2 {
  %5 = alloca ptr, align 8
  %6 = alloca ptr, align 8
  %7 = alloca ptr, align 8
  %8 = alloca ptr, align 8
  %9 = alloca i32, align 4
  %10 = alloca ptr, align 8
  %11 = alloca ptr, align 8
  %12 = alloca double, align 8
  %13 = alloca double, align 8
  store ptr %0, ptr %5, align 8
  store ptr %1, ptr %6, align 8
  store ptr %2, ptr %7, align 8
  store ptr %3, ptr %8, align 8
  %14 = load ptr, ptr %6, align 8
  %15 = call i32 @proj_get_type(ptr noundef %14)
  store i32 %15, ptr %9, align 4
  %16 = load i32, ptr %9, align 4
  %17 = icmp eq i32 %16, 12
  br i1 %17, label %21, label %18

18:                                               ; preds = %4
  %19 = load i32, ptr %9, align 4
  %20 = icmp eq i32 %19, 13
  br i1 %20, label %21, label %64

21:                                               ; preds = %18, %4
  %22 = load ptr, ptr %6, align 8
  %23 = getelementptr inbounds %struct.PJconsts, ptr %22, i32 0, i32 0
  %24 = load ptr, ptr %23, align 8
  %25 = load ptr, ptr %6, align 8
  %26 = call ptr @proj_crs_get_coordinate_system(ptr noundef %24, ptr noundef %25)
  store ptr %26, ptr %10, align 8
  store ptr @.str.67, ptr %11, align 8
  store double 0.000000e+00, ptr %12, align 8
  store double 0x3D06849B86A12B9B, ptr %13, align 8
  %27 = load ptr, ptr %6, align 8
  %28 = getelementptr inbounds %struct.PJconsts, ptr %27, i32 0, i32 0
  %29 = load ptr, ptr %28, align 8
  %30 = load ptr, ptr %10, align 8
  %31 = call i32 @proj_cs_get_axis_info(ptr noundef %29, ptr noundef %30, i32 noundef 0, ptr noundef null, ptr noundef null, ptr noundef %11, ptr noundef %12, ptr noundef null, ptr noundef null, ptr noundef null)
  %32 = icmp ne i32 %31, 0
  br i1 %32, label %33, label %43

33:                                               ; preds = %21
  %34 = load ptr, ptr %11, align 8
  %35 = call noundef zeroext i1 @_ZN5osgeo4proj8internal8ci_equalEPKcS3_(ptr noundef %34, ptr noundef @.str.107) #19
  br i1 %35, label %36, label %43

36:                                               ; preds = %33
  %37 = load double, ptr %12, align 8
  %38 = fsub double %37, 0x3F91DF46A2529D39
  %39 = call double @llvm.fabs.f64(double %38)
  %40 = fcmp olt double %39, 0x3D06849B86A12B9B
  %41 = load ptr, ptr %7, align 8
  %42 = zext i1 %40 to i8
  store i8 %42, ptr %41, align 1
  br label %61

43:                                               ; preds = %33, %21
  %44 = load ptr, ptr %6, align 8
  %45 = getelementptr inbounds %struct.PJconsts, ptr %44, i32 0, i32 0
  %46 = load ptr, ptr %45, align 8
  %47 = load ptr, ptr %10, align 8
  %48 = call i32 @proj_cs_get_axis_info(ptr noundef %46, ptr noundef %47, i32 noundef 1, ptr noundef null, ptr noundef null, ptr noundef %11, ptr noundef %12, ptr noundef null, ptr noundef null, ptr noundef null)
  %49 = icmp ne i32 %48, 0
  br i1 %49, label %50, label %60

50:                                               ; preds = %43
  %51 = load ptr, ptr %11, align 8
  %52 = call noundef zeroext i1 @_ZN5osgeo4proj8internal8ci_equalEPKcS3_(ptr noundef %51, ptr noundef @.str.107) #19
  br i1 %52, label %53, label %60

53:                                               ; preds = %50
  %54 = load double, ptr %12, align 8
  %55 = fsub double %54, 0x3F91DF46A2529D39
  %56 = call double @llvm.fabs.f64(double %55)
  %57 = fcmp olt double %56, 0x3D06849B86A12B9B
  %58 = load ptr, ptr %8, align 8
  %59 = zext i1 %57 to i8
  store i8 %59, ptr %58, align 1
  br label %60

60:                                               ; preds = %53, %50, %43
  br label %61

61:                                               ; preds = %60, %36
  %62 = load ptr, ptr %10, align 8
  %63 = call ptr @proj_destroy(ptr noundef %62)
  br label %64

64:                                               ; preds = %61, %18
  ret void
}