; Function Attrs: mustprogress uwtable
define internal fastcc void @"_ZZN16PJCoordOperationC1EiddddddddP8PJconstsRKNSt7__cxx1112basic_stringIcSt11char_traitsIcESaIcEEEddPKcPKS0_SD_ENK3$_0clESD_RbSF_"(ptr noundef %0, ptr nocapture noundef nonnull writeonly align 1 dereferenceable(1) %1, ptr nocapture noundef nonnull writeonly align 1 dereferenceable(1) %2) unnamed_addr #1 align 2 {
  %4 = alloca ptr, align 8
  %5 = alloca double, align 8
  %6 = tail call i32 @proj_get_type(ptr noundef %0)
  %7 = and i32 %6, -2
  %or.cond = icmp eq i32 %7, 12
  br i1 %or.cond, label %8, label %28

8:                                                ; preds = %3
  %9 = load ptr, ptr %0, align 8
  %10 = tail call ptr @proj_crs_get_coordinate_system(ptr noundef %9, ptr noundef nonnull %0)
  store ptr @.str.67, ptr %4, align 8
  store double 0.000000e+00, ptr %5, align 8
  %11 = load ptr, ptr %0, align 8
  %12 = call i32 @proj_cs_get_axis_info(ptr noundef %11, ptr noundef %10, i32 noundef 0, ptr noundef null, ptr noundef null, ptr noundef nonnull %4, ptr noundef nonnull %5, ptr noundef null, ptr noundef null, ptr noundef null)
  %.not = icmp eq i32 %12, 0
  br i1 %.not, label %16, label %13

13:                                               ; preds = %8
  %14 = load ptr, ptr %4, align 8
  %15 = call noundef zeroext i1 @_ZN5osgeo4proj8internal8ci_equalEPKcS3_(ptr noundef %14, ptr noundef nonnull @.str.107) #33
  br i1 %15, label %.sink.split, label %16

16:                                               ; preds = %13, %8
  %17 = load ptr, ptr %0, align 8
  %18 = call i32 @proj_cs_get_axis_info(ptr noundef %17, ptr noundef %10, i32 noundef 1, ptr noundef null, ptr noundef null, ptr noundef nonnull %4, ptr noundef nonnull %5, ptr noundef null, ptr noundef null, ptr noundef null)
  %.not12 = icmp eq i32 %18, 0
  br i1 %.not12, label %26, label %19

19:                                               ; preds = %16
  %20 = load ptr, ptr %4, align 8
  %21 = call noundef zeroext i1 @_ZN5osgeo4proj8internal8ci_equalEPKcS3_(ptr noundef %20, ptr noundef nonnull @.str.107) #33
  br i1 %21, label %.sink.split, label %26

.sink.split:                                      ; preds = %19, %13
  %.sink1 = phi ptr [ %1, %13 ], [ %2, %19 ]
  %.sink = load double, ptr %5, align 8
  %22 = fadd double %.sink, 0xBF91DF46A2529D39
  %23 = call double @llvm.fabs.f64(double %22)
  %24 = fcmp olt double %23, 0x3D06849B86A12B9B
  %25 = zext i1 %24 to i8
  store i8 %25, ptr %.sink1, align 1
  br label %26

26:                                               ; preds = %.sink.split, %16, %19
  %27 = call ptr @proj_destroy(ptr noundef %10)
  br label %28

28:                                               ; preds = %3, %26
  ret void
}